target datalayout = "e-m:e-p270:32:32-p271:32:32-p272:64:64-i64:64-i128:128-f80:128-n8:16:32:64-S128"
target triple = "x86_64-unknown-linux-gnu"

%class.svector.24 = type { %class.vector.25 }
%class.vector.25 = type { ptr }
%class.svector.3 = type { %class.vector.4 }
%class.vector.4 = type { ptr }
%"class.datalog::mk_rule_inliner::visitor" = type { %class.st_visitor, ptr, %class.svector.3, %class.svector.24, %class.svector.24, %class.obj_map.188 }
%class.st_visitor = type { ptr, ptr }
%class.obj_map.188 = type { %class.core_hashtable.189 }
%class.core_hashtable.189 = type <{ ptr, i32, i32, i32, [4 x i8] }>

; Function Attrs: mustprogress nounwind uwtable
define linkonce_odr hidden noundef i32 @_ZNK6vectorIbLb0EjE8capacityEv(ptr noundef nonnull align 8 dereferenceable(8) %this) #5 comdat align 2 {
entry:
  %retval = alloca i32, align 4
  %this.addr = alloca ptr, align 8
  store ptr %this, ptr %this.addr, align 8
  %this1 = load ptr, ptr %this.addr, align 8
  %m_data = getelementptr inbounds %class.vector.25, ptr %this1, i32 0, i32 0
  %0 = load ptr, ptr %m_data, align 8
  %cmp = icmp eq ptr %0, null
  br i1 %cmp, label %if.then, label %if.end

if.then:                                          ; preds = %entry
  store i32 0, ptr %retval, align 4
  br label %return

if.end:                                           ; preds = %entry
  %m_data2 = getelementptr inbounds %class.vector.25, ptr %this1, i32 0, i32 0
  %1 = load ptr, ptr %m_data2, align 8
  %arrayidx = getelementptr inbounds i32, ptr %1, i64 -2
  %2 = load i32, ptr %arrayidx, align 4
  store i32 %2, ptr %retval, align 4
  br label %return

return:                                           ; preds = %if.end, %if.then
  %3 = load i32, ptr %retval, align 4
  ret i32 %3
}

; Function Attrs: mustprogress nounwind uwtable
define linkonce_odr hidden void @_ZN6vectorIbLb0EjE6shrinkEj(ptr noundef nonnull align 8 dereferenceable(8) %this, i32 noundef %s) #5 comdat align 2 {
entry:
  %this.addr = alloca ptr, align 8
  %s.addr = alloca i32, align 4
  store ptr %this, ptr %this.addr, align 8
  store i32 %s, ptr %s.addr, align 4
  %this1 = load ptr, ptr %this.addr, align 8
  %m_data = getelementptr inbounds %class.vector.25, ptr %this1, i32 0, i32 0
  %0 = load ptr, ptr %m_data, align 8
  %tobool = icmp ne ptr %0, null
  br i1 %tobool, label %if.then, label %if.else

if.then:                                          ; preds = %entry
  %1 = load i32, ptr %s.addr, align 4
  %m_data2 = getelementptr inbounds %class.vector.25, ptr %this1, i32 0, i32 0
  %2 = load ptr, ptr %m_data2, align 8
  %arrayidx = getelementptr inbounds i32, ptr %2, i64 -1
  store i32 %1, ptr %arrayidx, align 4
  br label %if.end

if.else:                                          ; preds = %entry
  br label %if.end

if.end:                                           ; preds = %if.else, %if.then
  ret void
}

; Function Attrs: mustprogress nounwind uwtable
define linkonce_odr hidden noundef i32 @_ZNK6vectorIbLb0EjE4sizeEv(ptr noundef nonnull align 8 dereferenceable(8) %this) #5 comdat align 2 {
entry:
  %retval = alloca i32, align 4
  %this.addr = alloca ptr, align 8
  store ptr %this, ptr %this.addr, align 8
  %this1 = load ptr, ptr %this.addr, align 8
  %m_data = getelementptr inbounds %class.vector.25, ptr %this1, i32 0, i32 0
  %0 = load ptr, ptr %m_data, align 8
  %cmp = icmp eq ptr %0, null
  br i1 %cmp, label %if.then, label %if.end

if.then:                                          ; preds = %entry
  store i32 0, ptr %retval, align 4
  br label %return

if.end:                                           ; preds = %entry
  %m_data2 = getelementptr inbounds %class.vector.25, ptr %this1, i32 0, i32 0
  %1 = load ptr, ptr %m_data2, align 8
  %arrayidx = getelementptr inbounds i32, ptr %1, i64 -1
  %2 = load i32, ptr %arrayidx, align 4
  store i32 %2, ptr %retval, align 4
  br label %return

return:                                           ; preds = %if.end, %if.then
  %3 = load i32, ptr %retval, align 4
  ret i32 %3
}

; Function Attrs: mustprogress uwtable
define linkonce_odr hidden void @_ZN7obj_mapI4expr7svectorIjjEE5resetEv(ptr noundef nonnull align 8 dereferenceable(24) %this) #4 comdat align 2 {
entry:
  %this.addr = alloca ptr, align 8
  store ptr %this, ptr %this.addr, align 8
  %this1 = load ptr, ptr %this.addr, align 8
  %m_table = getelementptr inbounds %class.obj_map.188, ptr %this1, i32 0, i32 0
  call void @_ZN14core_hashtableIN7obj_mapI4expr7svectorIjjEE13obj_map_entryE8obj_hashINS4_8key_dataEE10default_eqIS7_EE5resetEv(ptr noundef nonnull align 8 dereferenceable(20) %m_table)
  ret void
}

; Function Attrs: mustprogress uwtable
define linkonce_odr hidden void @_ZN6vectorIbLb0EjE6resizeIbEEvjT_z(ptr noundef nonnull align 8 dereferenceable(8) %this, i32 noundef %s, i1 noundef zeroext %args, ...) #4 comdat align 2 {
entry:
  %this.addr = alloca ptr, align 8
  %s.addr = alloca i32, align 4
  %args.addr = alloca i8, align 1
  %sz = alloca i32, align 4
  %it = alloca ptr, align 8
  %end = alloca ptr, align 8
  store ptr %this, ptr %this.addr, align 8
  store i32 %s, ptr %s.addr, align 4
  %frombool = zext i1 %args to i8
  store i8 %frombool, ptr %args.addr, align 1
  %this1 = load ptr, ptr %this.addr, align 8
  %call = call noundef i32 @_ZNK6vectorIbLb0EjE4sizeEv(ptr noundef nonnull align 8 dereferenceable(8) %this1)
  store i32 %call, ptr %sz, align 4
  %0 = load i32, ptr %s.addr, align 4
  %1 = load i32, ptr %sz, align 4
  %cmp = icmp ule i32 %0, %1
  br i1 %cmp, label %if.then, label %if.end

if.then:                                          ; preds = %entry
  %2 = load i32, ptr %s.addr, align 4
  call void @_ZN6vectorIbLb0EjE6shrinkEj(ptr noundef nonnull align 8 dereferenceable(8) %this1, i32 noundef %2)
  br label %for.end

if.end:                                           ; preds = %entry
  br label %while.cond

while.cond:                                       ; preds = %while.body, %if.end
  %3 = load i32, ptr %s.addr, align 4
  %call2 = call noundef i32 @_ZNK6vectorIbLb0EjE8capacityEv(ptr noundef nonnull align 8 dereferenceable(8) %this1)
  %cmp3 = icmp ugt i32 %3, %call2
  br i1 %cmp3, label %while.body, label %while.end

while.body:                                       ; preds = %while.cond
  call void @_ZN6vectorIbLb0EjE13expand_vectorEv(ptr noundef nonnull align 8 dereferenceable(8) %this1)
  br label %while.cond, !llvm.loop !21

while.end:                                        ; preds = %while.cond
  %4 = load i32, ptr %s.addr, align 4
  %m_data = getelementptr inbounds %class.vector.25, ptr %this1, i32 0, i32 0
  %5 = load ptr, ptr %m_data, align 8
  %arrayidx = getelementptr inbounds i32, ptr %5, i64 -1
  store i32 %4, ptr %arrayidx, align 4
  %m_data4 = getelementptr inbounds %class.vector.25, ptr %this1, i32 0, i32 0
  %6 = load ptr, ptr %m_data4, align 8
  %7 = load i32, ptr %sz, align 4
  %idx.ext = zext i32 %7 to i64
  %add.ptr = getelementptr inbounds i8, ptr %6, i64 %idx.ext
  store ptr %add.ptr, ptr %it, align 8
  %m_data5 = getelementptr inbounds %class.vector.25, ptr %this1, i32 0, i32 0
  %8 = load ptr, ptr %m_data5, align 8
  %9 = load i32, ptr %s.addr, align 4
  %idx.ext6 = zext i32 %9 to i64
  %add.ptr7 = getelementptr inbounds i8, ptr %8, i64 %idx.ext6
  store ptr %add.ptr7, ptr %end, align 8
  br label %for.cond

for.cond:                                         ; preds = %for.inc, %while.end
  %10 = load ptr, ptr %it, align 8
  %11 = load ptr, ptr %end, align 8
  %cmp8 = icmp ne ptr %10, %11
  br i1 %cmp8, label %for.body, label %for.end

for.body:                                         ; preds = %for.cond
  %12 = load ptr, ptr %it, align 8
  %13 = load i8, ptr %args.addr, align 1
  %tobool = trunc i8 %13 to i1
  %frombool9 = zext i1 %tobool to i8
  store i8 %frombool9, ptr %12, align 1
  br label %for.inc

for.inc:                                          ; preds = %for.body
  %14 = load ptr, ptr %it, align 8
  %incdec.ptr = getelementptr inbounds i8, ptr %14, i32 1
  store ptr %incdec.ptr, ptr %it, align 8
  br label %for.cond, !llvm.loop !22

for.end:                                          ; preds = %for.cond, %if.then
  ret void
}

; Function Attrs: mustprogress nounwind uwtable
define linkonce_odr hidden void @_ZN6vectorIbLb0EjE5resetEv(ptr noundef nonnull align 8 dereferenceable(8) %this) #5 comdat align 2 {
entry:
  %this.addr = alloca ptr, align 8
  store ptr %this, ptr %this.addr, align 8
  %this1 = load ptr, ptr %this.addr, align 8
  %m_data = getelementptr inbounds %class.vector.25, ptr %this1, i32 0, i32 0
  %0 = load ptr, ptr %m_data, align 8
  %tobool = icmp ne ptr %0, null
  br i1 %tobool, label %if.then, label %if.end

if.then:                                          ; preds = %entry
  %m_data2 = getelementptr inbounds %class.vector.25, ptr %this1, i32 0, i32 0
  %1 = load ptr, ptr %m_data2, align 8
  %arrayidx = getelementptr inbounds i32, ptr %1, i64 -1
  store i32 0, ptr %arrayidx, align 4
  br label %if.end

if.end:                                           ; preds = %if.then, %entry
  ret void
}

; Function Attrs: mustprogress nounwind uwtable
define linkonce_odr hidden void @_ZN6vectorIjLb0EjE5resetEv(ptr noundef nonnull align 8 dereferenceable(8) %this) #5 comdat align 2 {
entry:
  %this.addr = alloca ptr, align 8
  store ptr %this, ptr %this.addr, align 8
  %this1 = load ptr, ptr %this.addr, align 8
  %m_data = getelementptr inbounds %class.vector.4, ptr %this1, i32 0, i32 0
  %0 = load ptr, ptr %m_data, align 8
  %tobool = icmp ne ptr %0, null
  br i1 %tobool, label %if.then, label %if.end

if.then:                                          ; preds = %entry
  %m_data2 = getelementptr inbounds %class.vector.4, ptr %this1, i32 0, i32 0
  %1 = load ptr, ptr %m_data2, align 8
  %arrayidx = getelementptr inbounds i32, ptr %1, i64 -1
  store i32 0, ptr %arrayidx, align 4
  br label %if.end

if.end:                                           ; preds = %if.then, %entry
  ret void
}

; Function Attrs: mustprogress uwtable
define hidden void @_ZN7datalog15mk_rule_inliner7visitor5resetEj(ptr noundef nonnull align 8 dereferenceable(72) %this, i32 noundef %sz) #4 align 2 {
entry:
  %this.addr = alloca ptr, align 8
  %sz.addr = alloca i32, align 4
  store ptr %this, ptr %this.addr, align 8
  store i32 %sz, ptr %sz.addr, align 4
  %this1 = load ptr, ptr %this.addr, align 8
  %m_unifiers = getelementptr inbounds %"class.datalog::mk_rule_inliner::visitor", ptr %this1, i32 0, i32 2
  call void @_ZN6vectorIjLb0EjE5resetEv(ptr noundef nonnull align 8 dereferenceable(8) %m_unifiers)
  %m_can_remove = getelementptr inbounds %"class.datalog::mk_rule_inliner::visitor", ptr %this1, i32 0, i32 3
  call void @_ZN6vectorIbLb0EjE5resetEv(ptr noundef nonnull align 8 dereferenceable(8) %m_can_remove)
  %m_can_remove2 = getelementptr inbounds %"class.datalog::mk_rule_inliner::visitor", ptr %this1, i32 0, i32 3
  %0 = load i32, ptr %sz.addr, align 4
  call void (ptr, i32, i1, ...) @_ZN6vectorIbLb0EjE6resizeIbEEvjT_z(ptr noundef nonnull align 8 dereferenceable(8) %m_can_remove2, i32 noundef %0, i1 noundef zeroext true)
  %m_can_expand = getelementptr inbounds %"class.datalog::mk_rule_inliner::visitor", ptr %this1, i32 0, i32 4
  call void @_ZN6vectorIbLb0EjE5resetEv(ptr noundef nonnull align 8 dereferenceable(8) %m_can_expand)
  %m_can_expand3 = getelementptr inbounds %"class.datalog::mk_rule_inliner::visitor", ptr %this1, i32 0, i32 4
  %1 = load i32, ptr %sz.addr, align 4
  call void (ptr, i32, i1, ...) @_ZN6vectorIbLb0EjE6resizeIbEEvjT_z(ptr noundef nonnull align 8 dereferenceable(8) %m_can_expand3, i32 noundef %1, i1 noundef zeroext true)
  %m_positions = getelementptr inbounds %"class.datalog::mk_rule_inliner::visitor", ptr %this1, i32 0, i32 5
  call void @_ZN7obj_mapI4expr7svectorIjjEE5resetEv(ptr noundef nonnull align 8 dereferenceable(24) %m_positions)
  ret void
}