; Function Attrs: mustprogress uwtable
define hidden void @_ZN7datalog15mk_rule_inliner7visitor5resetEj(ptr noundef nonnull align 8 dereferenceable(72) %this, i32 noundef %sz) local_unnamed_addr #3 align 2 {
entry:
  %m_unifiers = getelementptr inbounds i8, ptr %this, i64 24
  %0 = load ptr, ptr %m_unifiers, align 8
  %tobool.not.i = icmp eq ptr %0, null
  br i1 %tobool.not.i, label %_ZN6vectorIjLb0EjE5resetEv.exit, label %if.then.i

if.then.i:                                        ; preds = %entry
  %arrayidx.i = getelementptr inbounds i8, ptr %0, i64 -4
  store i32 0, ptr %arrayidx.i, align 4
  br label %_ZN6vectorIjLb0EjE5resetEv.exit

_ZN6vectorIjLb0EjE5resetEv.exit:                  ; preds = %entry, %if.then.i
  %m_can_remove = getelementptr inbounds i8, ptr %this, i64 32
  %1 = load ptr, ptr %m_can_remove, align 8
  %tobool.not.i2 = icmp eq ptr %1, null
  br i1 %tobool.not.i2, label %_ZNK6vectorIbLb0EjE4sizeEv.exit.i, label %_ZN6vectorIbLb0EjE5resetEv.exit

_ZN6vectorIbLb0EjE5resetEv.exit:                  ; preds = %_ZN6vectorIjLb0EjE5resetEv.exit
  %arrayidx.i4 = getelementptr inbounds i8, ptr %1, i64 -4
  store i32 0, ptr %arrayidx.i4, align 4
  %.pr = load ptr, ptr %m_can_remove, align 8
  %cmp.i.i = icmp eq ptr %.pr, null
  br i1 %cmp.i.i, label %_ZNK6vectorIbLb0EjE4sizeEv.exit.i, label %_ZNK6vectorIbLb0EjE4sizeEv.exit.thread.i

_ZNK6vectorIbLb0EjE4sizeEv.exit.i:                ; preds = %_ZN6vectorIjLb0EjE5resetEv.exit, %_ZN6vectorIbLb0EjE5resetEv.exit
  %cmp.not.not.i = icmp eq i32 %sz, 0
  br i1 %cmp.not.not.i, label %_ZN6vectorIbLb0EjE6resizeIbEEvjT_z.exit, label %while.cond.i.preheader

_ZNK6vectorIbLb0EjE4sizeEv.exit.thread.i:         ; preds = %_ZN6vectorIbLb0EjE5resetEv.exit
  %arrayidx.i.i = getelementptr inbounds i8, ptr %.pr, i64 -4
  %2 = load i32, ptr %arrayidx.i.i, align 4
  %cmp.not15.i = icmp ult i32 %2, %sz
  br i1 %cmp.not15.i, label %while.cond.i.preheader, label %if.then.i.i

while.cond.i.preheader:                           ; preds = %_ZNK6vectorIbLb0EjE4sizeEv.exit.i, %_ZNK6vectorIbLb0EjE4sizeEv.exit.thread.i
  %.ph41 = phi ptr [ %.pr, %_ZNK6vectorIbLb0EjE4sizeEv.exit.thread.i ], [ null, %_ZNK6vectorIbLb0EjE4sizeEv.exit.i ]
  %retval.0.i16.i.ph = phi i32 [ %2, %_ZNK6vectorIbLb0EjE4sizeEv.exit.thread.i ], [ 0, %_ZNK6vectorIbLb0EjE4sizeEv.exit.i ]
  br label %while.cond.i

if.then.i.i:                                      ; preds = %_ZNK6vectorIbLb0EjE4sizeEv.exit.thread.i
  store i32 %sz, ptr %arrayidx.i.i, align 4
  br label %_ZN6vectorIbLb0EjE6resizeIbEEvjT_z.exit

while.cond.i:                                     ; preds = %while.cond.i.preheader, %while.body.i
  %3 = phi ptr [ %.pr.pre.i, %while.body.i ], [ %.ph41, %while.cond.i.preheader ]
  %cmp.i10.i = icmp eq ptr %3, null
  br i1 %cmp.i10.i, label %_ZNK6vectorIbLb0EjE8capacityEv.exit.i, label %if.end.i11.i

if.end.i11.i:                                     ; preds = %while.cond.i
  %arrayidx.i12.i = getelementptr inbounds i8, ptr %3, i64 -8
  %4 = load i32, ptr %arrayidx.i12.i, align 4
  br label %_ZNK6vectorIbLb0EjE8capacityEv.exit.i

_ZNK6vectorIbLb0EjE8capacityEv.exit.i:            ; preds = %if.end.i11.i, %while.cond.i
  %retval.0.i13.i = phi i32 [ %4, %if.end.i11.i ], [ 0, %while.cond.i ]
  %cmp3.i = icmp ult i32 %retval.0.i13.i, %sz
  br i1 %cmp3.i, label %while.body.i, label %while.end.i

while.body.i:                                     ; preds = %_ZNK6vectorIbLb0EjE8capacityEv.exit.i
  tail call void @_ZN6vectorIbLb0EjE13expand_vectorEv(ptr noundef nonnull align 8 dereferenceable(8) %m_can_remove)
  %.pr.pre.i = load ptr, ptr %m_can_remove, align 8
  br label %while.cond.i, !llvm.loop !40

while.end.i:                                      ; preds = %_ZNK6vectorIbLb0EjE8capacityEv.exit.i
  %arrayidx.i5 = getelementptr inbounds i8, ptr %3, i64 -4
  store i32 %sz, ptr %arrayidx.i5, align 4
  %cmp8.not17.i = icmp eq i32 %retval.0.i16.i.ph, %sz
  br i1 %cmp8.not17.i, label %_ZN6vectorIbLb0EjE6resizeIbEEvjT_z.exit, label %for.body.preheader.i

for.body.preheader.i:                             ; preds = %while.end.i
  %idx.ext6.i = zext i32 %sz to i64
  %5 = load ptr, ptr %m_can_remove, align 8
  %idx.ext.i = zext i32 %retval.0.i16.i.ph to i64
  %add.ptr.i = getelementptr i8, ptr %5, i64 %idx.ext.i
  %6 = sub nsw i64 %idx.ext6.i, %idx.ext.i
  tail call void @llvm.memset.p0.i64(ptr align 1 %add.ptr.i, i8 1, i64 %6, i1 false)
  br label %_ZN6vectorIbLb0EjE6resizeIbEEvjT_z.exit

_ZN6vectorIbLb0EjE6resizeIbEEvjT_z.exit:          ; preds = %_ZNK6vectorIbLb0EjE4sizeEv.exit.i, %if.then.i.i, %while.end.i, %for.body.preheader.i
  %m_can_expand = getelementptr inbounds i8, ptr %this, i64 40
  %7 = load ptr, ptr %m_can_expand, align 8
  %tobool.not.i6 = icmp eq ptr %7, null
  br i1 %tobool.not.i6, label %_ZNK6vectorIbLb0EjE4sizeEv.exit.i35, label %_ZN6vectorIbLb0EjE5resetEv.exit9

_ZN6vectorIbLb0EjE5resetEv.exit9:                 ; preds = %_ZN6vectorIbLb0EjE6resizeIbEEvjT_z.exit
  %arrayidx.i8 = getelementptr inbounds i8, ptr %7, i64 -4
  store i32 0, ptr %arrayidx.i8, align 4
  %.pr39 = load ptr, ptr %m_can_expand, align 8
  %cmp.i.i10 = icmp eq ptr %.pr39, null
  br i1 %cmp.i.i10, label %_ZNK6vectorIbLb0EjE4sizeEv.exit.i35, label %_ZNK6vectorIbLb0EjE4sizeEv.exit.thread.i11

_ZNK6vectorIbLb0EjE4sizeEv.exit.i35:              ; preds = %_ZN6vectorIbLb0EjE6resizeIbEEvjT_z.exit, %_ZN6vectorIbLb0EjE5resetEv.exit9
  %cmp.not.not.i36 = icmp eq i32 %sz, 0
  br i1 %cmp.not.not.i36, label %_ZN6vectorIbLb0EjE6resizeIbEEvjT_z.exit37, label %while.cond.i18.preheader

_ZNK6vectorIbLb0EjE4sizeEv.exit.thread.i11:       ; preds = %_ZN6vectorIbLb0EjE5resetEv.exit9
  %arrayidx.i.i12 = getelementptr inbounds i8, ptr %.pr39, i64 -4
  %8 = load i32, ptr %arrayidx.i.i12, align 4
  %cmp.not15.i13 = icmp ult i32 %8, %sz
  br i1 %cmp.not15.i13, label %while.cond.i18.preheader, label %if.then.i.i14

while.cond.i18.preheader:                         ; preds = %_ZNK6vectorIbLb0EjE4sizeEv.exit.i35, %_ZNK6vectorIbLb0EjE4sizeEv.exit.thread.i11
  %.ph = phi ptr [ %.pr39, %_ZNK6vectorIbLb0EjE4sizeEv.exit.thread.i11 ], [ null, %_ZNK6vectorIbLb0EjE4sizeEv.exit.i35 ]
  %retval.0.i16.i19.ph = phi i32 [ %8, %_ZNK6vectorIbLb0EjE4sizeEv.exit.thread.i11 ], [ 0, %_ZNK6vectorIbLb0EjE4sizeEv.exit.i35 ]
  br label %while.cond.i18

if.then.i.i14:                                    ; preds = %_ZNK6vectorIbLb0EjE4sizeEv.exit.thread.i11
  store i32 %sz, ptr %arrayidx.i.i12, align 4
  br label %_ZN6vectorIbLb0EjE6resizeIbEEvjT_z.exit37

while.cond.i18:                                   ; preds = %while.cond.i18.preheader, %while.body.i33
  %9 = phi ptr [ %.pr.pre.i34, %while.body.i33 ], [ %.ph, %while.cond.i18.preheader ]
  %cmp.i10.i20 = icmp eq ptr %9, null
  br i1 %cmp.i10.i20, label %_ZNK6vectorIbLb0EjE8capacityEv.exit.i23, label %if.end.i11.i21

if.end.i11.i21:                                   ; preds = %while.cond.i18
  %arrayidx.i12.i22 = getelementptr inbounds i8, ptr %9, i64 -8
  %10 = load i32, ptr %arrayidx.i12.i22, align 4
  br label %_ZNK6vectorIbLb0EjE8capacityEv.exit.i23

_ZNK6vectorIbLb0EjE8capacityEv.exit.i23:          ; preds = %if.end.i11.i21, %while.cond.i18
  %retval.0.i13.i24 = phi i32 [ %10, %if.end.i11.i21 ], [ 0, %while.cond.i18 ]
  %cmp3.i25 = icmp ult i32 %retval.0.i13.i24, %sz
  br i1 %cmp3.i25, label %while.body.i33, label %while.end.i26

while.body.i33:                                   ; preds = %_ZNK6vectorIbLb0EjE8capacityEv.exit.i23
  tail call void @_ZN6vectorIbLb0EjE13expand_vectorEv(ptr noundef nonnull align 8 dereferenceable(8) %m_can_expand)
  %.pr.pre.i34 = load ptr, ptr %m_can_expand, align 8
  br label %while.cond.i18, !llvm.loop !40

while.end.i26:                                    ; preds = %_ZNK6vectorIbLb0EjE8capacityEv.exit.i23
  %arrayidx.i27 = getelementptr inbounds i8, ptr %9, i64 -4
  store i32 %sz, ptr %arrayidx.i27, align 4
  %cmp8.not17.i28 = icmp eq i32 %retval.0.i16.i19.ph, %sz
  br i1 %cmp8.not17.i28, label %_ZN6vectorIbLb0EjE6resizeIbEEvjT_z.exit37, label %for.body.preheader.i29

for.body.preheader.i29:                           ; preds = %while.end.i26
  %idx.ext6.i30 = zext i32 %sz to i64
  %11 = load ptr, ptr %m_can_expand, align 8
  %idx.ext.i31 = zext i32 %retval.0.i16.i19.ph to i64
  %add.ptr.i32 = getelementptr i8, ptr %11, i64 %idx.ext.i31
  %12 = sub nsw i64 %idx.ext6.i30, %idx.ext.i31
  tail call void @llvm.memset.p0.i64(ptr align 1 %add.ptr.i32, i8 1, i64 %12, i1 false)
  br label %_ZN6vectorIbLb0EjE6resizeIbEEvjT_z.exit37

_ZN6vectorIbLb0EjE6resizeIbEEvjT_z.exit37:        ; preds = %_ZNK6vectorIbLb0EjE4sizeEv.exit.i35, %if.then.i.i14, %while.end.i26, %for.body.preheader.i29
  %m_positions = getelementptr inbounds i8, ptr %this, i64 48
  tail call void @_ZN14core_hashtableIN7obj_mapI4expr7svectorIjjEE13obj_map_entryE8obj_hashINS4_8key_dataEE10default_eqIS7_EE5resetEv(ptr noundef nonnull align 8 dereferenceable(20) %m_positions)
  ret void
}